target datalayout = "e-m:e-p270:32:32-p271:32:32-p272:64:64-i64:64-i128:128-f80:128-n8:16:32:64-S128"
target triple = "x86_64-pc-linux-gnu"

%struct._packet_info = type { ptr, ptr, i32, i32, %struct.nstime_t, %struct.nstime_t, %struct.nstime_t, i8, ptr, ptr, ptr, ptr, %struct._address, %struct._address, %struct._address, %struct._address, %struct._address, %struct._address, i32, ptr, i8, [3 x i8], %struct.anon, i32, i32, i32, i32, ptr, i8, ptr, ptr, i16, i16, i32, i32, i16, i32, i32, ptr, ptr, ptr, i8, i8, i16, i16, i16, i32, i16, i16, ptr, ptr, ptr, ptr, ptr, i32, i32 }
%struct.nstime_t = type { i64, i32 }
%struct._address = type { i32, i32, ptr, ptr }
%struct.anon = type { i8, [3 x i8] }

@hf_aim_tlvcount = internal global i32 0, align 4
@hf_aim_buddylist_userinfo_warninglevel = internal global i32 0, align 4
@.str.632 = private unnamed_addr constant [15 x i8] c"Oncoming Buddy\00", align 1
@.str.639 = private unnamed_addr constant [5 x i8] c": %s\00", align 1

; Function Attrs: null_pointer_is_valid sspstrong uwtable
define internal i32 @dissect_aim_tlv_list(ptr noundef %0, ptr noundef %1, i32 noundef %2, ptr noundef %3, ptr noundef %4) #0 {
  %6 = alloca ptr, align 8
  %7 = alloca ptr, align 8
  %8 = alloca i32, align 4
  %9 = alloca ptr, align 8
  %10 = alloca ptr, align 8
  %11 = alloca i16, align 2
  %12 = alloca i16, align 2
  store ptr %0, ptr %6, align 8
  store ptr %1, ptr %7, align 8
  store i32 %2, ptr %8, align 4
  store ptr %3, ptr %9, align 8
  store ptr %4, ptr %10, align 8
  call void @llvm.lifetime.start.p0(i64 2, ptr %11) #13
  call void @llvm.lifetime.start.p0(i64 2, ptr %12) #13
  %13 = load ptr, ptr %6, align 8
  %14 = load i32, ptr %8, align 4
  %15 = call zeroext i16 @tvb_get_ntohs(ptr noundef %13, i32 noundef %14)
  store i16 %15, ptr %12, align 2
  %16 = load ptr, ptr %9, align 8
  %17 = load i32, ptr @hf_aim_tlvcount, align 4
  %18 = load ptr, ptr %6, align 8
  %19 = load i32, ptr %8, align 4
  %20 = call ptr @proto_tree_add_item(ptr noundef %16, i32 noundef %17, ptr noundef %18, i32 noundef %19, i32 noundef 2, i32 noundef 0)
  %21 = load i32, ptr %8, align 4
  %22 = add i32 %21, 2
  store i32 %22, ptr %8, align 4
  store i16 0, ptr %11, align 2
  br label %23

23:                                               ; preds = %36, %5
  %24 = load i16, ptr %11, align 2
  %25 = zext i16 %24 to i32
  %26 = load i16, ptr %12, align 2
  %27 = zext i16 %26 to i32
  %28 = icmp slt i32 %25, %27
  br i1 %28, label %29, label %39

29:                                               ; preds = %23
  %30 = load ptr, ptr %6, align 8
  %31 = load ptr, ptr %7, align 8
  %32 = load i32, ptr %8, align 4
  %33 = load ptr, ptr %9, align 8
  %34 = load ptr, ptr %10, align 8
  %35 = call i32 @dissect_aim_tlv(ptr noundef %30, ptr noundef %31, i32 noundef %32, ptr noundef %33, ptr noundef %34)
  store i32 %35, ptr %8, align 4
  br label %36

36:                                               ; preds = %29
  %37 = load i16, ptr %11, align 2
  %38 = add i16 %37, 1
  store i16 %38, ptr %11, align 2
  br label %23, !llvm.loop !15

39:                                               ; preds = %23
  %40 = load i32, ptr %8, align 4
  call void @llvm.lifetime.end.p0(i64 2, ptr %12) #13
  call void @llvm.lifetime.end.p0(i64 2, ptr %11) #13
  ret i32 %40
}

; Function Attrs: null_pointer_is_valid sspstrong uwtable
define internal i32 @aim_get_buddyname(ptr noundef %0, ptr noundef %1, ptr noundef %2, i32 noundef %3) #0 {
  %5 = alloca ptr, align 8
  %6 = alloca ptr, align 8
  %7 = alloca ptr, align 8
  %8 = alloca i32, align 4
  %9 = alloca i8, align 1
  store ptr %0, ptr %5, align 8
  store ptr %1, ptr %6, align 8
  store ptr %2, ptr %7, align 8
  store i32 %3, ptr %8, align 4
  call void @llvm.lifetime.start.p0(i64 1, ptr %9) #13
  %10 = load ptr, ptr %7, align 8
  %11 = load i32, ptr %8, align 4
  %12 = call zeroext i8 @tvb_get_uint8(ptr noundef %10, i32 noundef %11)
  store i8 %12, ptr %9, align 1
  %13 = load ptr, ptr %5, align 8
  %14 = load ptr, ptr %7, align 8
  %15 = load i32, ptr %8, align 4
  %16 = add i32 %15, 1
  %17 = load i8, ptr %9, align 1
  %18 = zext i8 %17 to i32
  %19 = call ptr @tvb_get_string_enc(ptr noundef %13, ptr noundef %14, i32 noundef %16, i32 noundef %18, i32 noundef 2)
  %20 = load ptr, ptr %6, align 8
  store ptr %19, ptr %20, align 8
  %21 = load i8, ptr %9, align 1
  %22 = zext i8 %21 to i32
  call void @llvm.lifetime.end.p0(i64 1, ptr %9) #13
  ret i32 %22
}

; Function Attrs: null_pointer_is_valid sspstrong uwtable
define internal i32 @dissect_aim_buddylist_oncoming(ptr noundef %0, ptr noundef %1, ptr noundef %2) #0 {
  %4 = alloca ptr, align 8
  %5 = alloca ptr, align 8
  %6 = alloca ptr, align 8
  %7 = alloca ptr, align 8
  %8 = alloca i32, align 4
  %9 = alloca i32, align 4
  store ptr %0, ptr %4, align 8
  store ptr %1, ptr %5, align 8
  store ptr %2, ptr %6, align 8
  call void @llvm.lifetime.start.p0(i64 8, ptr %7) #13
  call void @llvm.lifetime.start.p0(i64 4, ptr %8) #13
  store i32 0, ptr %8, align 4
  call void @llvm.lifetime.start.p0(i64 4, ptr %9) #13
  %10 = load ptr, ptr %5, align 8
  %11 = getelementptr inbounds nuw %struct._packet_info, ptr %10, i32 0, i32 51
  %12 = load ptr, ptr %11, align 8
  %13 = load ptr, ptr %4, align 8
  %14 = load i32, ptr %8, align 4
  %15 = call i32 @aim_get_buddyname(ptr noundef %12, ptr noundef %7, ptr noundef %13, i32 noundef %14)
  store i32 %15, ptr %9, align 4
  %16 = load ptr, ptr %5, align 8
  %17 = getelementptr inbounds nuw %struct._packet_info, ptr %16, i32 0, i32 1
  %18 = load ptr, ptr %17, align 8
  call void @col_set_str(ptr noundef %18, i32 noundef 25, ptr noundef @.str.632)
  %19 = load ptr, ptr %5, align 8
  %20 = getelementptr inbounds nuw %struct._packet_info, ptr %19, i32 0, i32 1
  %21 = load ptr, ptr %20, align 8
  %22 = load ptr, ptr %5, align 8
  %23 = getelementptr inbounds nuw %struct._packet_info, ptr %22, i32 0, i32 51
  %24 = load ptr, ptr %23, align 8
  %25 = load ptr, ptr %7, align 8
  %26 = load i32, ptr %9, align 4
  %27 = sext i32 %26 to i64
  %28 = call ptr @format_text(ptr noundef %24, ptr noundef %25, i64 noundef %27)
  call void (ptr, i32, ptr, ...) @col_append_fstr(ptr noundef %21, i32 noundef 25, ptr noundef @.str.639, ptr noundef %28)
  %29 = load ptr, ptr %4, align 8
  %30 = load ptr, ptr %5, align 8
  %31 = load i32, ptr %8, align 4
  %32 = load ptr, ptr %6, align 8
  %33 = call i32 @dissect_aim_buddyname(ptr noundef %29, ptr noundef %30, i32 noundef %31, ptr noundef %32)
  %34 = load i32, ptr %8, align 4
  %35 = add i32 %34, %33
  store i32 %35, ptr %8, align 4
  %36 = load ptr, ptr %6, align 8
  %37 = load i32, ptr @hf_aim_buddylist_userinfo_warninglevel, align 4
  %38 = load ptr, ptr %4, align 8
  %39 = load i32, ptr %8, align 4
  %40 = call ptr @proto_tree_add_item(ptr noundef %36, i32 noundef %37, ptr noundef %38, i32 noundef %39, i32 noundef 2, i32 noundef 0)
  %41 = load i32, ptr %8, align 4
  %42 = add i32 %41, 2
  store i32 %42, ptr %8, align 4
  %43 = load ptr, ptr %4, align 8
  %44 = load ptr, ptr %5, align 8
  %45 = load i32, ptr %8, align 4
  %46 = load ptr, ptr %6, align 8
  %47 = call i32 @dissect_aim_tlv_list(ptr noundef %43, ptr noundef %44, i32 noundef %45, ptr noundef %46, ptr noundef @aim_onlinebuddy_tlvs)
  store i32 %47, ptr %8, align 4
  %48 = load i32, ptr %8, align 4
  call void @llvm.lifetime.end.p0(i64 4, ptr %9) #13
  call void @llvm.lifetime.end.p0(i64 4, ptr %8) #13
  call void @llvm.lifetime.end.p0(i64 8, ptr %7) #13
  ret i32 %48
}