; Function Attrs: null_pointer_is_valid sspstrong uwtable
define internal i32 @dissect_aim_buddylist_oncoming(ptr noundef %0, ptr noundef %1, ptr noundef %2) #0 {
  %4 = getelementptr inbounds nuw i8, ptr %1, i64 408
  %5 = load ptr, ptr %4, align 8
  %6 = tail call zeroext i8 @tvb_get_uint8(ptr noundef %0, i32 noundef 0)
  %7 = zext i8 %6 to i32
  %8 = tail call ptr @tvb_get_string_enc(ptr noundef %5, ptr noundef %0, i32 noundef 1, i32 noundef %7, i32 noundef 2)
  %9 = getelementptr inbounds nuw i8, ptr %1, i64 8
  %10 = load ptr, ptr %9, align 8
  tail call void @col_set_str(ptr noundef %10, i32 noundef 25, ptr noundef nonnull @.str.632)
  %11 = load ptr, ptr %9, align 8
  %12 = load ptr, ptr %4, align 8
  %13 = zext i8 %6 to i64
  %14 = tail call ptr @format_text(ptr noundef %12, ptr noundef %8, i64 noundef %13)
  tail call void (ptr, i32, ptr, ...) @col_append_fstr(ptr noundef %11, i32 noundef 25, ptr noundef nonnull @.str.639, ptr noundef %14)
  %15 = tail call fastcc i32 @dissect_aim_buddyname(ptr noundef %0, ptr noundef %1, i32 noundef 0, ptr noundef %2)
  %16 = load i32, ptr @hf_aim_buddylist_userinfo_warninglevel, align 4
  %17 = tail call ptr @proto_tree_add_item(ptr noundef %2, i32 noundef %16, ptr noundef %0, i32 noundef %15, i32 noundef 2, i32 noundef 0)
  %18 = add i32 %15, 2
  %19 = tail call zeroext i16 @tvb_get_ntohs(ptr noundef %0, i32 noundef %18)
  %20 = load i32, ptr @hf_aim_tlvcount, align 4
  %21 = tail call ptr @proto_tree_add_item(ptr noundef %2, i32 noundef %20, ptr noundef %0, i32 noundef %18, i32 noundef 2, i32 noundef 0)
  %22 = add i32 %15, 4
  %.not.i = icmp eq i16 %19, 0
  br i1 %.not.i, label %dissect_aim_tlv_list.exit, label %.lr.ph.i

.lr.ph.i:                                         ; preds = %3, %.lr.ph.i
  %.016.i = phi i32 [ %23, %.lr.ph.i ], [ %22, %3 ]
  %.01415.i = phi i16 [ %24, %.lr.ph.i ], [ 0, %3 ]
  %23 = tail call fastcc i32 @dissect_aim_tlv(ptr noundef %0, ptr noundef %1, i32 noundef %.016.i, ptr noundef %2, ptr noundef nonnull @aim_onlinebuddy_tlvs)
  %24 = add nuw i16 %.01415.i, 1
  %exitcond.not.i = icmp eq i16 %24, %19
  br i1 %exitcond.not.i, label %dissect_aim_tlv_list.exit, label %.lr.ph.i, !llvm.loop !14

dissect_aim_tlv_list.exit:                        ; preds = %.lr.ph.i, %3
  %.0.lcssa.i = phi i32 [ %22, %3 ], [ %23, %.lr.ph.i ]
  ret i32 %.0.lcssa.i
}